target datalayout = "e-m:e-p270:32:32-p271:32:32-p272:64:64-i64:64-i128:128-f80:128-n8:16:32:64-S128"
target triple = "x86_64-pc-linux-gnu"

%struct.jpeg_decompress_struct = type { ptr, ptr, ptr, ptr, i32, i32, ptr, i32, i32, i32, i32, i32, i32, i32, double, i32, i32, i32, i32, i32, i32, i32, i32, i32, i32, i32, i32, i32, i32, i32, i32, i32, i32, ptr, i32, i32, i32, i32, i32, ptr, [4 x ptr], [4 x ptr], [4 x ptr], i32, ptr, i32, i32, [16 x i8], [16 x i8], [16 x i8], i32, i32, i8, i8, i8, i16, i16, i32, i8, i32, ptr, i32, i32, i32, i32, ptr, i32, [4 x ptr], i32, i32, i32, [10 x i32], i32, i32, i32, i32, i32, ptr, ptr, ptr, ptr, ptr, ptr, ptr, ptr, ptr, ptr, ptr }
%struct.jpeg_error_mgr = type { ptr, ptr, ptr, ptr, ptr, i32, %union.anon, i32, i64, ptr, i32, ptr, i32, i32 }
%union.anon = type { [8 x i32], [48 x i8] }
%struct.jpeg_source_mgr = type { ptr, i64, ptr, ptr, ptr, ptr, ptr }

; Function Attrs: nounwind uwtable
define internal i32 @skip_variable(ptr noundef %0) #0 {
  %2 = alloca i32, align 4
  %3 = alloca ptr, align 8
  %4 = alloca i64, align 8
  %5 = alloca ptr, align 8
  %6 = alloca ptr, align 8
  %7 = alloca i64, align 8
  %8 = alloca i32, align 4
  store ptr %0, ptr %3, align 8, !tbaa !3
  call void @llvm.lifetime.start.p0(i64 8, ptr %4) #5
  call void @llvm.lifetime.start.p0(i64 8, ptr %5) #5
  %9 = load ptr, ptr %3, align 8, !tbaa !3
  %10 = getelementptr inbounds nuw %struct.jpeg_decompress_struct, ptr %9, i32 0, i32 6
  %11 = load ptr, ptr %10, align 8, !tbaa !39
  store ptr %11, ptr %5, align 8, !tbaa !40
  call void @llvm.lifetime.start.p0(i64 8, ptr %6) #5
  %12 = load ptr, ptr %5, align 8, !tbaa !40
  %13 = getelementptr inbounds nuw %struct.jpeg_source_mgr, ptr %12, i32 0, i32 0
  %14 = load ptr, ptr %13, align 8, !tbaa !41
  store ptr %14, ptr %6, align 8, !tbaa !43
  call void @llvm.lifetime.start.p0(i64 8, ptr %7) #5
  %15 = load ptr, ptr %5, align 8, !tbaa !40
  %16 = getelementptr inbounds nuw %struct.jpeg_source_mgr, ptr %15, i32 0, i32 1
  %17 = load i64, ptr %16, align 8, !tbaa !44
  store i64 %17, ptr %7, align 8, !tbaa !45
  br label %18

18:                                               ; preds = %1
  %19 = load i64, ptr %7, align 8, !tbaa !45
  %20 = icmp eq i64 %19, 0
  br i1 %20, label %21, label %36

21:                                               ; preds = %18
  %22 = load ptr, ptr %5, align 8, !tbaa !40
  %23 = getelementptr inbounds nuw %struct.jpeg_source_mgr, ptr %22, i32 0, i32 3
  %24 = load ptr, ptr %23, align 8, !tbaa !46
  %25 = load ptr, ptr %3, align 8, !tbaa !3
  %26 = call i32 %24(ptr noundef %25)
  %27 = icmp ne i32 %26, 0
  br i1 %27, label %29, label %28

28:                                               ; preds = %21
  store i32 0, ptr %2, align 4
  store i32 1, ptr %8, align 4
  br label %117

29:                                               ; preds = %21
  %30 = load ptr, ptr %5, align 8, !tbaa !40
  %31 = getelementptr inbounds nuw %struct.jpeg_source_mgr, ptr %30, i32 0, i32 0
  %32 = load ptr, ptr %31, align 8, !tbaa !41
  store ptr %32, ptr %6, align 8, !tbaa !43
  %33 = load ptr, ptr %5, align 8, !tbaa !40
  %34 = getelementptr inbounds nuw %struct.jpeg_source_mgr, ptr %33, i32 0, i32 1
  %35 = load i64, ptr %34, align 8, !tbaa !44
  store i64 %35, ptr %7, align 8, !tbaa !45
  br label %36

36:                                               ; preds = %29, %18
  %37 = load i64, ptr %7, align 8, !tbaa !45
  %38 = add i64 %37, -1
  store i64 %38, ptr %7, align 8, !tbaa !45
  %39 = load ptr, ptr %6, align 8, !tbaa !43
  %40 = getelementptr inbounds nuw i8, ptr %39, i32 1
  store ptr %40, ptr %6, align 8, !tbaa !43
  %41 = load i8, ptr %39, align 1, !tbaa !37
  %42 = zext i8 %41 to i32
  %43 = shl i32 %42, 8
  %44 = zext i32 %43 to i64
  store i64 %44, ptr %4, align 8, !tbaa !45
  %45 = load i64, ptr %7, align 8, !tbaa !45
  %46 = icmp eq i64 %45, 0
  br i1 %46, label %47, label %62

47:                                               ; preds = %36
  %48 = load ptr, ptr %5, align 8, !tbaa !40
  %49 = getelementptr inbounds nuw %struct.jpeg_source_mgr, ptr %48, i32 0, i32 3
  %50 = load ptr, ptr %49, align 8, !tbaa !46
  %51 = load ptr, ptr %3, align 8, !tbaa !3
  %52 = call i32 %50(ptr noundef %51)
  %53 = icmp ne i32 %52, 0
  br i1 %53, label %55, label %54

54:                                               ; preds = %47
  store i32 0, ptr %2, align 4
  store i32 1, ptr %8, align 4
  br label %117

55:                                               ; preds = %47
  %56 = load ptr, ptr %5, align 8, !tbaa !40
  %57 = getelementptr inbounds nuw %struct.jpeg_source_mgr, ptr %56, i32 0, i32 0
  %58 = load ptr, ptr %57, align 8, !tbaa !41
  store ptr %58, ptr %6, align 8, !tbaa !43
  %59 = load ptr, ptr %5, align 8, !tbaa !40
  %60 = getelementptr inbounds nuw %struct.jpeg_source_mgr, ptr %59, i32 0, i32 1
  %61 = load i64, ptr %60, align 8, !tbaa !44
  store i64 %61, ptr %7, align 8, !tbaa !45
  br label %62

62:                                               ; preds = %55, %36
  %63 = load i64, ptr %7, align 8, !tbaa !45
  %64 = add i64 %63, -1
  store i64 %64, ptr %7, align 8, !tbaa !45
  %65 = load ptr, ptr %6, align 8, !tbaa !43
  %66 = getelementptr inbounds nuw i8, ptr %65, i32 1
  store ptr %66, ptr %6, align 8, !tbaa !43
  %67 = load i8, ptr %65, align 1, !tbaa !37
  %68 = zext i8 %67 to i64
  %69 = load i64, ptr %4, align 8, !tbaa !45
  %70 = add nsw i64 %69, %68
  store i64 %70, ptr %4, align 8, !tbaa !45
  br label %71

71:                                               ; preds = %62
  br label %72

72:                                               ; preds = %71
  %73 = load i64, ptr %4, align 8, !tbaa !45
  %74 = sub nsw i64 %73, 2
  store i64 %74, ptr %4, align 8, !tbaa !45
  %75 = load ptr, ptr %3, align 8, !tbaa !3
  %76 = getelementptr inbounds nuw %struct.jpeg_decompress_struct, ptr %75, i32 0, i32 0
  %77 = load ptr, ptr %76, align 8, !tbaa !33
  %78 = getelementptr inbounds nuw %struct.jpeg_error_mgr, ptr %77, i32 0, i32 5
  store i32 91, ptr %78, align 8, !tbaa !34
  %79 = load ptr, ptr %3, align 8, !tbaa !3
  %80 = getelementptr inbounds nuw %struct.jpeg_decompress_struct, ptr %79, i32 0, i32 76
  %81 = load i32, ptr %80, align 4, !tbaa !10
  %82 = load ptr, ptr %3, align 8, !tbaa !3
  %83 = getelementptr inbounds nuw %struct.jpeg_decompress_struct, ptr %82, i32 0, i32 0
  %84 = load ptr, ptr %83, align 8, !tbaa !33
  %85 = getelementptr inbounds nuw %struct.jpeg_error_mgr, ptr %84, i32 0, i32 6
  %86 = getelementptr inbounds [8 x i32], ptr %85, i64 0, i64 0
  store i32 %81, ptr %86, align 4, !tbaa !37
  %87 = load i64, ptr %4, align 8, !tbaa !45
  %88 = trunc i64 %87 to i32
  %89 = load ptr, ptr %3, align 8, !tbaa !3
  %90 = getelementptr inbounds nuw %struct.jpeg_decompress_struct, ptr %89, i32 0, i32 0
  %91 = load ptr, ptr %90, align 8, !tbaa !33
  %92 = getelementptr inbounds nuw %struct.jpeg_error_mgr, ptr %91, i32 0, i32 6
  %93 = getelementptr inbounds [8 x i32], ptr %92, i64 0, i64 1
  store i32 %88, ptr %93, align 4, !tbaa !37
  %94 = load ptr, ptr %3, align 8, !tbaa !3
  %95 = getelementptr inbounds nuw %struct.jpeg_decompress_struct, ptr %94, i32 0, i32 0
  %96 = load ptr, ptr %95, align 8, !tbaa !33
  %97 = getelementptr inbounds nuw %struct.jpeg_error_mgr, ptr %96, i32 0, i32 1
  %98 = load ptr, ptr %97, align 8, !tbaa !38
  %99 = load ptr, ptr %3, align 8, !tbaa !3
  call void %98(ptr noundef %99, i32 noundef 1)
  %100 = load ptr, ptr %6, align 8, !tbaa !43
  %101 = load ptr, ptr %5, align 8, !tbaa !40
  %102 = getelementptr inbounds nuw %struct.jpeg_source_mgr, ptr %101, i32 0, i32 0
  store ptr %100, ptr %102, align 8, !tbaa !41
  %103 = load i64, ptr %7, align 8, !tbaa !45
  %104 = load ptr, ptr %5, align 8, !tbaa !40
  %105 = getelementptr inbounds nuw %struct.jpeg_source_mgr, ptr %104, i32 0, i32 1
  store i64 %103, ptr %105, align 8, !tbaa !44
  %106 = load i64, ptr %4, align 8, !tbaa !45
  %107 = icmp sgt i64 %106, 0
  br i1 %107, label %108, label %116

108:                                              ; preds = %72
  %109 = load ptr, ptr %3, align 8, !tbaa !3
  %110 = getelementptr inbounds nuw %struct.jpeg_decompress_struct, ptr %109, i32 0, i32 6
  %111 = load ptr, ptr %110, align 8, !tbaa !39
  %112 = getelementptr inbounds nuw %struct.jpeg_source_mgr, ptr %111, i32 0, i32 4
  %113 = load ptr, ptr %112, align 8, !tbaa !74
  %114 = load ptr, ptr %3, align 8, !tbaa !3
  %115 = load i64, ptr %4, align 8, !tbaa !45
  call void %113(ptr noundef %114, i64 noundef %115)
  br label %116

116:                                              ; preds = %108, %72
  store i32 1, ptr %2, align 4
  store i32 1, ptr %8, align 4
  br label %117

117:                                              ; preds = %116, %54, %28
  call void @llvm.lifetime.end.p0(i64 8, ptr %7) #5
  call void @llvm.lifetime.end.p0(i64 8, ptr %6) #5
  call void @llvm.lifetime.end.p0(i64 8, ptr %5) #5
  call void @llvm.lifetime.end.p0(i64 8, ptr %4) #5
  %118 = load i32, ptr %2, align 4
  ret i32 %118
}