; Function Attrs: nounwind uwtable
define internal range(i32 0, 2) i32 @skip_variable(ptr noundef %0) #0 {
  %2 = getelementptr inbounds nuw i8, ptr %0, i64 40
  %3 = load ptr, ptr %2, align 8, !tbaa !36
  %4 = getelementptr inbounds nuw i8, ptr %3, i64 8
  %5 = load i64, ptr %4, align 8, !tbaa !39
  %6 = icmp eq i64 %5, 0
  br i1 %6, label %7, label %13

7:                                                ; preds = %1
  %8 = getelementptr inbounds nuw i8, ptr %3, i64 24
  %9 = load ptr, ptr %8, align 8, !tbaa !40
  %10 = tail call i32 %9(ptr noundef nonnull %0) #7
  %.not = icmp eq i32 %10, 0
  br i1 %.not, label %50, label %11

11:                                               ; preds = %7
  %12 = load i64, ptr %4, align 8, !tbaa !39
  br label %13

13:                                               ; preds = %11, %1
  %.0 = phi i64 [ %12, %11 ], [ %5, %1 ]
  %.034 = load ptr, ptr %3, align 8, !tbaa !37
  %14 = add i64 %.0, -1
  %15 = getelementptr inbounds nuw i8, ptr %.034, i64 1
  %16 = load i8, ptr %.034, align 1, !tbaa !34
  %17 = zext i8 %16 to i64
  %18 = shl nuw nsw i64 %17, 8
  %19 = icmp eq i64 %14, 0
  br i1 %19, label %20, label %27

20:                                               ; preds = %13
  %21 = getelementptr inbounds nuw i8, ptr %3, i64 24
  %22 = load ptr, ptr %21, align 8, !tbaa !40
  %23 = tail call i32 %22(ptr noundef nonnull %0) #7
  %.not40 = icmp eq i32 %23, 0
  br i1 %.not40, label %50, label %24

24:                                               ; preds = %20
  %25 = load ptr, ptr %3, align 8, !tbaa !37
  %26 = load i64, ptr %4, align 8, !tbaa !39
  br label %27

27:                                               ; preds = %24, %13
  %.135 = phi ptr [ %25, %24 ], [ %15, %13 ]
  %.1 = phi i64 [ %26, %24 ], [ %14, %13 ]
  %28 = add i64 %.1, -1
  %29 = getelementptr inbounds nuw i8, ptr %.135, i64 1
  %30 = load i8, ptr %.135, align 1, !tbaa !34
  %31 = zext i8 %30 to i64
  %32 = or disjoint i64 %18, %31
  %33 = add nsw i64 %32, -2
  %34 = load ptr, ptr %0, align 8, !tbaa !30
  %35 = getelementptr inbounds nuw i8, ptr %34, i64 40
  store i32 91, ptr %35, align 8, !tbaa !31
  %36 = getelementptr inbounds nuw i8, ptr %0, i64 540
  %37 = load i32, ptr %36, align 4, !tbaa !3
  %38 = getelementptr inbounds nuw i8, ptr %34, i64 44
  store i32 %37, ptr %38, align 4, !tbaa !34
  %39 = trunc nsw i64 %33 to i32
  %40 = load ptr, ptr %0, align 8, !tbaa !30
  %41 = getelementptr inbounds nuw i8, ptr %40, i64 48
  store i32 %39, ptr %41, align 4, !tbaa !34
  %42 = load ptr, ptr %0, align 8, !tbaa !30
  %43 = getelementptr inbounds nuw i8, ptr %42, i64 8
  %44 = load ptr, ptr %43, align 8, !tbaa !35
  tail call void %44(ptr noundef nonnull %0, i32 noundef 1) #7
  store ptr %29, ptr %3, align 8, !tbaa !37
  store i64 %28, ptr %4, align 8, !tbaa !39
  %45 = icmp samesign ugt i64 %32, 2
  br i1 %45, label %46, label %50

46:                                               ; preds = %27
  %47 = load ptr, ptr %2, align 8, !tbaa !36
  %48 = getelementptr inbounds nuw i8, ptr %47, i64 32
  %49 = load ptr, ptr %48, align 8, !tbaa !101
  tail call void %49(ptr noundef nonnull %0, i64 noundef %33) #7
  br label %50

50:                                               ; preds = %27, %46, %20, %7
  %.036 = phi i32 [ 0, %7 ], [ 0, %20 ], [ 1, %46 ], [ 1, %27 ]
  ret i32 %.036
}